; Function Attrs: mustprogress nofree norecurse nosync nounwind willreturn memory(argmem: readwrite) uwtable
define internal noundef zeroext i1 @_ZNSt17_Function_handlerIFbPN3dap10SerializerEEZZN12_GLOBAL__N_14Impl4sendEPKNS0_8TypeInfoEPKvENKUlPNS0_15FieldSerializerEE_clESC_EUlS2_E_E10_M_managerERSt9_Any_dataRKSG_St18_Manager_operation(ptr nocapture noundef nonnull writeonly align 8 dereferenceable(16) %0, ptr noundef nonnull align 8 dereferenceable(16) %1, i32 noundef %2) #17 align 2 personality ptr @__gxx_personality_v0 {
  switch i32 %2, label %_ZNSt14_Function_base13_Base_managerIZZN12_GLOBAL__N_14Impl4sendEPKN3dap8TypeInfoEPKvENKUlPNS3_15FieldSerializerEE_clESA_EUlPNS3_10SerializerEE_E10_M_managerERSt9_Any_dataRKSG_St18_Manager_operation.exit [
    i32 0, label %4
    i32 1, label %5
    i32 2, label %6
  ]

4:                                                ; preds = %3
  store ptr @_ZTIZZN12_GLOBAL__N_14Impl4sendEPKN3dap8TypeInfoEPKvENKUlPNS1_15FieldSerializerEE_clES8_EUlPNS1_10SerializerEE_, ptr %0, align 8
  br label %_ZNSt14_Function_base13_Base_managerIZZN12_GLOBAL__N_14Impl4sendEPKN3dap8TypeInfoEPKvENKUlPNS3_15FieldSerializerEE_clESA_EUlPNS3_10SerializerEE_E10_M_managerERSt9_Any_dataRKSG_St18_Manager_operation.exit

5:                                                ; preds = %3
  store ptr %1, ptr %0, align 8
  br label %_ZNSt14_Function_base13_Base_managerIZZN12_GLOBAL__N_14Impl4sendEPKN3dap8TypeInfoEPKvENKUlPNS3_15FieldSerializerEE_clESA_EUlPNS3_10SerializerEE_E10_M_managerERSt9_Any_dataRKSG_St18_Manager_operation.exit

6:                                                ; preds = %3
  tail call void @llvm.memcpy.p0.p0.i64(ptr noundef nonnull align 8 dereferenceable(16) %0, ptr noundef nonnull align 8 dereferenceable(16) %1, i64 16, i1 false)
  br label %_ZNSt14_Function_base13_Base_managerIZZN12_GLOBAL__N_14Impl4sendEPKN3dap8TypeInfoEPKvENKUlPNS3_15FieldSerializerEE_clESA_EUlPNS3_10SerializerEE_E10_M_managerERSt9_Any_dataRKSG_St18_Manager_operation.exit

_ZNSt14_Function_base13_Base_managerIZZN12_GLOBAL__N_14Impl4sendEPKN3dap8TypeInfoEPKvENKUlPNS3_15FieldSerializerEE_clESA_EUlPNS3_10SerializerEE_E10_M_managerERSt9_Any_dataRKSG_St18_Manager_operation.exit: ; preds = %3, %6, %5, %4
  ret i1 false
}